target datalayout = "e-m:e-p270:32:32-p271:32:32-p272:64:64-i64:64-i128:128-f80:128-n8:16:32:64-S128"
target triple = "x86_64-unknown-linux-gnu"

%struct.BlockDriverInfo = type { i32, i32, i64, i8, i8 }

; Function Attrs: nounwind sspstrong uwtable
define dso_local i32 @bdrv_get_default_bitmap_granularity(ptr noundef %bs) #0 {
entry:
  %bs.addr = alloca ptr, align 8
  %bdi = alloca %struct.BlockDriverInfo, align 8
  %granularity = alloca i32, align 4
  %_a4 = alloca i32, align 4
  %_b5 = alloca i32, align 4
  %tmp = alloca i32, align 4
  %_a6 = alloca i32, align 4
  %_b7 = alloca i32, align 4
  %tmp4 = alloca i32, align 4
  store ptr %bs, ptr %bs.addr, align 8
  %0 = load ptr, ptr %bs.addr, align 8
  %call = call i32 @bdrv_get_info(ptr noundef %0, ptr noundef %bdi)
  %cmp = icmp sge i32 %call, 0
  br i1 %cmp, label %land.lhs.true, label %if.else

land.lhs.true:                                    ; preds = %entry
  %cluster_size = getelementptr inbounds %struct.BlockDriverInfo, ptr %bdi, i32 0, i32 0
  %1 = load i32, ptr %cluster_size, align 8
  %cmp1 = icmp sgt i32 %1, 0
  br i1 %cmp1, label %if.then, label %if.else

if.then:                                          ; preds = %land.lhs.true
  store i32 4096, ptr %_a4, align 4
  %cluster_size2 = getelementptr inbounds %struct.BlockDriverInfo, ptr %bdi, i32 0, i32 0
  %2 = load i32, ptr %cluster_size2, align 8
  store i32 %2, ptr %_b5, align 4
  %3 = load i32, ptr %_a4, align 4
  %4 = load i32, ptr %_b5, align 4
  %cmp3 = icmp sgt i32 %3, %4
  br i1 %cmp3, label %cond.true, label %cond.false

cond.true:                                        ; preds = %if.then
  %5 = load i32, ptr %_a4, align 4
  br label %cond.end

cond.false:                                       ; preds = %if.then
  %6 = load i32, ptr %_b5, align 4
  br label %cond.end

cond.end:                                         ; preds = %cond.false, %cond.true
  %cond = phi i32 [ %5, %cond.true ], [ %6, %cond.false ]
  store i32 %cond, ptr %tmp, align 4
  %7 = load i32, ptr %tmp, align 4
  store i32 %7, ptr %granularity, align 4
  store i32 65536, ptr %_a6, align 4
  %8 = load i32, ptr %granularity, align 4
  store i32 %8, ptr %_b7, align 4
  %9 = load i32, ptr %_a6, align 4
  %10 = load i32, ptr %_b7, align 4
  %cmp5 = icmp ult i32 %9, %10
  br i1 %cmp5, label %cond.true6, label %cond.false7

cond.true6:                                       ; preds = %cond.end
  %11 = load i32, ptr %_a6, align 4
  br label %cond.end8

cond.false7:                                      ; preds = %cond.end
  %12 = load i32, ptr %_b7, align 4
  br label %cond.end8

cond.end8:                                        ; preds = %cond.false7, %cond.true6
  %cond9 = phi i32 [ %11, %cond.true6 ], [ %12, %cond.false7 ]
  store i32 %cond9, ptr %tmp4, align 4
  %13 = load i32, ptr %tmp4, align 4
  store i32 %13, ptr %granularity, align 4
  br label %if.end

if.else:                                          ; preds = %land.lhs.true, %entry
  store i32 65536, ptr %granularity, align 4
  br label %if.end

if.end:                                           ; preds = %if.else, %cond.end8
  %14 = load i32, ptr %granularity, align 4
  ret i32 %14
}