; Function Attrs: nounwind sspstrong uwtable
define dso_local range(i32 4096, 65537) i32 @bdrv_get_default_bitmap_granularity(ptr noundef %bs) local_unnamed_addr #0 {
entry:
  %bdi = alloca %struct.BlockDriverInfo, align 8
  %call = call i32 @bdrv_get_info(ptr noundef %bs, ptr noundef nonnull %bdi) #14
  %cmp = icmp sgt i32 %call, -1
  %0 = load i32, ptr %bdi, align 8
  %cmp1 = icmp sgt i32 %0, 0
  %or.cond = select i1 %cmp, i1 %cmp1, i1 false
  br i1 %or.cond, label %if.then, label %if.end

if.then:                                          ; preds = %entry
  %1 = call i32 @llvm.umax.i32(i32 %0, i32 4096)
  %cond9 = call i32 @llvm.umin.i32(i32 %1, i32 65536)
  br label %if.end

if.end:                                           ; preds = %entry, %if.then
  %granularity.0 = phi i32 [ %cond9, %if.then ], [ 65536, %entry ]
  ret i32 %granularity.0
}